target datalayout = "e-m:e-p270:32:32-p271:32:32-p272:64:64-i64:64-i128:128-f80:128-n8:16:32:64-S128"
target triple = "x86_64-pc-linux-gnu"

; Function Attrs: mustprogress null_pointer_is_valid sspstrong uwtable
define void @_ZN18ExportObjectAction16captureFileEventE12CaptureEvent(ptr noundef align 8 dereferenceable_or_null(24) %0, ptr noundef %1) #0 align 2 {
  %3 = alloca ptr, align 8
  %4 = alloca ptr, align 8
  store ptr %0, ptr %3, align 8
  store ptr %1, ptr %4, align 8
  %5 = load ptr, ptr %3, align 8
  %6 = call noundef i32 @_ZNK12CaptureEvent14captureContextEv(ptr noundef align 8 dereferenceable_or_null(40) %1)
  %7 = icmp eq i32 %6, 2
  br i1 %7, label %8, label %18

8:                                                ; preds = %2
  %9 = call noundef i32 @_ZNK12CaptureEvent9eventTypeEv(ptr noundef align 8 dereferenceable_or_null(40) %1)
  %10 = icmp eq i32 %9, 1
  br i1 %10, label %11, label %12

11:                                               ; preds = %8
  call void @_ZN7QAction10setEnabledEb(ptr noundef align 8 dereferenceable_or_null(16) %5, i1 noundef zeroext true)
  br label %17

12:                                               ; preds = %8
  %13 = call noundef i32 @_ZNK12CaptureEvent9eventTypeEv(ptr noundef align 8 dereferenceable_or_null(40) %1)
  %14 = icmp eq i32 %13, 16
  br i1 %14, label %15, label %16

15:                                               ; preds = %12
  call void @_ZN7QAction10setEnabledEb(ptr noundef align 8 dereferenceable_or_null(16) %5, i1 noundef zeroext false)
  br label %16

16:                                               ; preds = %15, %12
  br label %17

17:                                               ; preds = %16, %11
  br label %18

18:                                               ; preds = %17, %2
  ret void
}