; Function Attrs: mustprogress null_pointer_is_valid sspstrong uwtable
define void @_ZN18ExportObjectAction16captureFileEventE12CaptureEvent(ptr noundef align 8 dereferenceable_or_null(24) %0, ptr noundef %1) local_unnamed_addr #0 align 2 {
  %3 = tail call noundef i32 @_ZNK12CaptureEvent14captureContextEv(ptr noundef align 8 dereferenceable_or_null(40) %1)
  %4 = icmp eq i32 %3, 2
  br i1 %4, label %5, label %11

5:                                                ; preds = %2
  %6 = tail call noundef i32 @_ZNK12CaptureEvent9eventTypeEv(ptr noundef align 8 dereferenceable_or_null(40) %1)
  %7 = icmp eq i32 %6, 1
  br i1 %7, label %.sink.split, label %8

8:                                                ; preds = %5
  %9 = tail call noundef i32 @_ZNK12CaptureEvent9eventTypeEv(ptr noundef align 8 dereferenceable_or_null(40) %1)
  %10 = icmp eq i32 %9, 16
  br i1 %10, label %.sink.split, label %11

.sink.split:                                      ; preds = %8, %5
  tail call void @_ZN7QAction10setEnabledEb(ptr noundef align 8 dereferenceable_or_null(16) %0, i1 noundef zeroext %7)
  br label %11

11:                                               ; preds = %.sink.split, %8, %2
  ret void
}